; Function Attrs: nounwind sspstrong uwtable
define internal i64 @rb_digest_base_block_length(i64 noundef %0) #0 {
  %2 = tail call i64 @rb_obj_class(i64 noundef %0) #9
  %3 = tail call fastcc nonnull ptr @get_digest_base_metadata(i64 noundef %2)
  %4 = getelementptr inbounds nuw i8, ptr %3, i64 16
  %5 = load i64, ptr %4, align 8, !tbaa !73
  %6 = icmp ult i64 %5, 4611686018427387904
  br i1 %6, label %7, label %10

7:                                                ; preds = %1
  %8 = shl nuw nsw i64 %5, 1
  %9 = or disjoint i64 %8, 1
  br label %rb_ull2num_inline.exit

10:                                               ; preds = %1
  %11 = tail call i64 @rb_ull2inum(i64 noundef %5) #9
  br label %rb_ull2num_inline.exit

rb_ull2num_inline.exit:                           ; preds = %7, %10
  %.0.i = phi i64 [ %9, %7 ], [ %11, %10 ]
  ret i64 %.0.i
}